target datalayout = "e-m:e-p270:32:32-p271:32:32-p272:64:64-i64:64-i128:128-f80:128-n8:16:32:64-S128"
target triple = "x86_64-pc-linux-gnu"

%"struct.Luau::AstName" = type { ptr }
%"class.Luau::AstNode.base" = type <{ ptr, i32, %"struct.Luau::Location" }>
%"struct.Luau::Location" = type { %"struct.Luau::Position", %"struct.Luau::Position" }
%"struct.Luau::Position" = type { i32, i32 }
%"struct.Luau::AstArray.25" = type { ptr, i64 }
%"class.Luau::AstGenericTypePack" = type { %"class.Luau::AstNode.base", %"struct.Luau::AstName", ptr }

; Function Attrs: mustprogress nounwind uwtable
define linkonce_odr dso_local noundef ptr @_ZNK4Luau8AstArrayIPNS_18AstGenericTypePackEE3endEv(ptr noundef nonnull align 8 dereferenceable(16) %0) #4 comdat align 2 {
  %2 = alloca ptr, align 8
  store ptr %0, ptr %2, align 8, !tbaa !472
  %3 = load ptr, ptr %2, align 8
  %4 = getelementptr inbounds nuw %"struct.Luau::AstArray.25", ptr %3, i32 0, i32 0
  %5 = load ptr, ptr %4, align 8, !tbaa !620
  %6 = getelementptr inbounds nuw %"struct.Luau::AstArray.25", ptr %3, i32 0, i32 1
  %7 = load i64, ptr %6, align 8, !tbaa !621
  %8 = getelementptr inbounds nuw ptr, ptr %5, i64 %7
  ret ptr %8
}

; Function Attrs: mustprogress nounwind uwtable
define linkonce_odr dso_local noundef ptr @_ZNK4Luau8AstArrayIPNS_18AstGenericTypePackEE5beginEv(ptr noundef nonnull align 8 dereferenceable(16) %0) #4 comdat align 2 {
  %2 = alloca ptr, align 8
  store ptr %0, ptr %2, align 8, !tbaa !472
  %3 = load ptr, ptr %2, align 8
  %4 = getelementptr inbounds nuw %"struct.Luau::AstArray.25", ptr %3, i32 0, i32 0
  %5 = load ptr, ptr %4, align 8, !tbaa !620
  ret ptr %5
}

; Function Attrs: mustprogress uwtable
define dso_local void @_ZN4Luau20DataFlowGraphBuilder17visitGenericPacksENS_8AstArrayIPNS_18AstGenericTypePackEEE(ptr noundef nonnull align 8 dereferenceable(336) %0, ptr %1, i64 %2) #2 align 2 {
  %4 = alloca %"struct.Luau::AstArray.25", align 8
  %5 = alloca ptr, align 8
  %6 = alloca ptr, align 8
  %7 = alloca ptr, align 8
  %8 = alloca ptr, align 8
  %9 = alloca ptr, align 8
  %10 = getelementptr inbounds nuw { ptr, i64 }, ptr %4, i32 0, i32 0
  store ptr %1, ptr %10, align 8
  %11 = getelementptr inbounds nuw { ptr, i64 }, ptr %4, i32 0, i32 1
  store i64 %2, ptr %11, align 8
  store ptr %0, ptr %5, align 8, !tbaa !154
  %12 = load ptr, ptr %5, align 8
  call void @llvm.lifetime.start.p0(i64 8, ptr %6) #17
  store ptr %4, ptr %6, align 8, !tbaa !472
  call void @llvm.lifetime.start.p0(i64 8, ptr %7) #17
  %13 = load ptr, ptr %6, align 8, !tbaa !472
  %14 = call noundef ptr @_ZNK4Luau8AstArrayIPNS_18AstGenericTypePackEE5beginEv(ptr noundef nonnull align 8 dereferenceable(16) %13)
  store ptr %14, ptr %7, align 8, !tbaa !399
  call void @llvm.lifetime.start.p0(i64 8, ptr %8) #17
  %15 = load ptr, ptr %6, align 8, !tbaa !472
  %16 = call noundef ptr @_ZNK4Luau8AstArrayIPNS_18AstGenericTypePackEE3endEv(ptr noundef nonnull align 8 dereferenceable(16) %15)
  store ptr %16, ptr %8, align 8, !tbaa !399
  br label %17

17:                                               ; preds = %34, %3
  %18 = load ptr, ptr %7, align 8, !tbaa !399
  %19 = load ptr, ptr %8, align 8, !tbaa !399
  %20 = icmp ne ptr %18, %19
  br i1 %20, label %22, label %21

21:                                               ; preds = %17
  call void @llvm.lifetime.end.p0(i64 8, ptr %8) #17
  call void @llvm.lifetime.end.p0(i64 8, ptr %7) #17
  call void @llvm.lifetime.end.p0(i64 8, ptr %6) #17
  br label %37

22:                                               ; preds = %17
  call void @llvm.lifetime.start.p0(i64 8, ptr %9) #17
  %23 = load ptr, ptr %7, align 8, !tbaa !399
  %24 = load ptr, ptr %23, align 8, !tbaa !474
  store ptr %24, ptr %9, align 8, !tbaa !474
  %25 = load ptr, ptr %9, align 8, !tbaa !474
  %26 = getelementptr inbounds nuw %"class.Luau::AstGenericTypePack", ptr %25, i32 0, i32 2
  %27 = load ptr, ptr %26, align 8, !tbaa !476
  %28 = icmp ne ptr %27, null
  br i1 %28, label %29, label %33

29:                                               ; preds = %22
  %30 = load ptr, ptr %9, align 8, !tbaa !474
  %31 = getelementptr inbounds nuw %"class.Luau::AstGenericTypePack", ptr %30, i32 0, i32 2
  %32 = load ptr, ptr %31, align 8, !tbaa !476
  call void @_ZN4Luau20DataFlowGraphBuilder13visitTypePackEPNS_11AstTypePackE(ptr noundef nonnull align 8 dereferenceable(336) %12, ptr noundef %32)
  br label %33

33:                                               ; preds = %29, %22
  call void @llvm.lifetime.end.p0(i64 8, ptr %9) #17
  br label %34

34:                                               ; preds = %33
  %35 = load ptr, ptr %7, align 8, !tbaa !399
  %36 = getelementptr inbounds nuw ptr, ptr %35, i32 1
  store ptr %36, ptr %7, align 8, !tbaa !399
  br label %17

37:                                               ; preds = %21
  ret void
}